; Function Attrs: mustprogress nounwind uwtable
define internal fastcc void @"_ZSt21__inplace_stable_sortIPSt10unique_ptrIN12_GLOBAL__N_19IntrinsicESt14default_deleteIS2_EEN9__gnu_cxx5__ops15_Iter_comp_iterIZNS1_10SVEEmitter26createCoreHeaderIntrinsicsERN4llvm11raw_ostreamERSA_8ACLEKindE3$_0EEEvT_SI_T0_"(ptr noundef %0, ptr noundef %1) unnamed_addr #3 {
  %3 = ptrtoint ptr %1 to i64
  %4 = ptrtoint ptr %0 to i64
  %5 = sub i64 %3, %4
  %6 = ashr exact i64 %5, 3
  %7 = icmp slt i64 %6, 15
  br i1 %7, label %common.ret, label %8

common.ret:                                       ; preds = %2
  tail call fastcc void @"_ZSt16__insertion_sortIPSt10unique_ptrIN12_GLOBAL__N_19IntrinsicESt14default_deleteIS2_EEN9__gnu_cxx5__ops15_Iter_comp_iterIZNS1_10SVEEmitter26createCoreHeaderIntrinsicsERN4llvm11raw_ostreamERSA_8ACLEKindE3$_0EEEvT_SI_T0_"(ptr noundef %0, ptr noundef %1)
  br label %common.ret25

common.ret25:                                     ; preds = %8, %common.ret
  ret void

8:                                                ; preds = %2
  %9 = lshr i64 %6, 1
  %10 = getelementptr inbounds nuw %"class.std::unique_ptr.57", ptr %0, i64 %9
  tail call fastcc void @"_ZSt21__inplace_stable_sortIPSt10unique_ptrIN12_GLOBAL__N_19IntrinsicESt14default_deleteIS2_EEN9__gnu_cxx5__ops15_Iter_comp_iterIZNS1_10SVEEmitter26createCoreHeaderIntrinsicsERN4llvm11raw_ostreamERSA_8ACLEKindE3$_0EEEvT_SI_T0_"(ptr noundef %0, ptr noundef %10)
  tail call fastcc void @"_ZSt21__inplace_stable_sortIPSt10unique_ptrIN12_GLOBAL__N_19IntrinsicESt14default_deleteIS2_EEN9__gnu_cxx5__ops15_Iter_comp_iterIZNS1_10SVEEmitter26createCoreHeaderIntrinsicsERN4llvm11raw_ostreamERSA_8ACLEKindE3$_0EEEvT_SI_T0_"(ptr noundef %10, ptr noundef %1)
  %11 = ptrtoint ptr %10 to i64
  %12 = sub i64 %3, %11
  %13 = ashr exact i64 %12, 3
  tail call fastcc void @"_ZSt22__merge_without_bufferIPSt10unique_ptrIN12_GLOBAL__N_19IntrinsicESt14default_deleteIS2_EElN9__gnu_cxx5__ops15_Iter_comp_iterIZNS1_10SVEEmitter26createCoreHeaderIntrinsicsERN4llvm11raw_ostreamERSA_8ACLEKindE3$_0EEEvT_SI_SI_T0_SJ_T1_"(ptr noundef %0, ptr noundef %10, ptr noundef %1, i64 noundef %9, i64 noundef %13)
  br label %common.ret25
}